
GccApplication1.elf:     file format elf32-avr

Sections:
Idx Name          Size      VMA       LMA       File off  Algn
  0 .data         00000014  00800100  0000073e  000007d2  2**0
                  CONTENTS, ALLOC, LOAD, DATA
  1 .text         0000073e  00000000  00000000  00000094  2**1
                  CONTENTS, ALLOC, LOAD, READONLY, CODE
  2 .bss          00000002  00800114  00800114  000007e6  2**0
                  ALLOC
  3 .comment      00000030  00000000  00000000  000007e6  2**0
                  CONTENTS, READONLY
  4 .note.gnu.avr.deviceinfo 00000040  00000000  00000000  00000818  2**2
                  CONTENTS, READONLY
  5 .debug_aranges 000000a8  00000000  00000000  00000858  2**0
                  CONTENTS, READONLY, DEBUGGING
  6 .debug_info   0000153d  00000000  00000000  00000900  2**0
                  CONTENTS, READONLY, DEBUGGING
  7 .debug_abbrev 00000a44  00000000  00000000  00001e3d  2**0
                  CONTENTS, READONLY, DEBUGGING
  8 .debug_line   000008dd  00000000  00000000  00002881  2**0
                  CONTENTS, READONLY, DEBUGGING
  9 .debug_frame  00000134  00000000  00000000  00003160  2**2
                  CONTENTS, READONLY, DEBUGGING
 10 .debug_str    000004d1  00000000  00000000  00003294  2**0
                  CONTENTS, READONLY, DEBUGGING
 11 .debug_loc    00000c8e  00000000  00000000  00003765  2**0
                  CONTENTS, READONLY, DEBUGGING
 12 .debug_ranges 00000090  00000000  00000000  000043f3  2**0
                  CONTENTS, READONLY, DEBUGGING

Disassembly of section .text:

00000000 <__vectors>:
   0:	0c 94 34 00 	jmp	0x68	; 0x68 <__ctors_end>
   4:	0c 94 51 00 	jmp	0xa2	; 0xa2 <__bad_interrupt>
   8:	0c 94 51 00 	jmp	0xa2	; 0xa2 <__bad_interrupt>
   c:	0c 94 51 00 	jmp	0xa2	; 0xa2 <__bad_interrupt>
  10:	0c 94 51 00 	jmp	0xa2	; 0xa2 <__bad_interrupt>
  14:	0c 94 51 00 	jmp	0xa2	; 0xa2 <__bad_interrupt>
  18:	0c 94 51 00 	jmp	0xa2	; 0xa2 <__bad_interrupt>
  1c:	0c 94 51 00 	jmp	0xa2	; 0xa2 <__bad_interrupt>
  20:	0c 94 51 00 	jmp	0xa2	; 0xa2 <__bad_interrupt>
  24:	0c 94 51 00 	jmp	0xa2	; 0xa2 <__bad_interrupt>
  28:	0c 94 51 00 	jmp	0xa2	; 0xa2 <__bad_interrupt>
  2c:	0c 94 51 00 	jmp	0xa2	; 0xa2 <__bad_interrupt>
  30:	0c 94 51 00 	jmp	0xa2	; 0xa2 <__bad_interrupt>
  34:	0c 94 51 00 	jmp	0xa2	; 0xa2 <__bad_interrupt>
  38:	0c 94 51 00 	jmp	0xa2	; 0xa2 <__bad_interrupt>
  3c:	0c 94 51 00 	jmp	0xa2	; 0xa2 <__bad_interrupt>
  40:	0c 94 51 00 	jmp	0xa2	; 0xa2 <__bad_interrupt>
  44:	0c 94 51 00 	jmp	0xa2	; 0xa2 <__bad_interrupt>
  48:	0c 94 51 00 	jmp	0xa2	; 0xa2 <__bad_interrupt>
  4c:	0c 94 51 00 	jmp	0xa2	; 0xa2 <__bad_interrupt>
  50:	0c 94 51 00 	jmp	0xa2	; 0xa2 <__bad_interrupt>
  54:	0c 94 51 00 	jmp	0xa2	; 0xa2 <__bad_interrupt>
  58:	0c 94 51 00 	jmp	0xa2	; 0xa2 <__bad_interrupt>
  5c:	0c 94 51 00 	jmp	0xa2	; 0xa2 <__bad_interrupt>
  60:	0c 94 51 00 	jmp	0xa2	; 0xa2 <__bad_interrupt>
  64:	0c 94 51 00 	jmp	0xa2	; 0xa2 <__bad_interrupt>

00000068 <__ctors_end>:
  68:	11 24       	eor	r1, r1
  6a:	1f be       	out	0x3f, r1	; 63
  6c:	cf ef       	ldi	r28, 0xFF	; 255
  6e:	d8 e0       	ldi	r29, 0x08	; 8
  70:	de bf       	out	0x3e, r29	; 62
  72:	cd bf       	out	0x3d, r28	; 61

00000074 <__do_copy_data>:
  74:	11 e0       	ldi	r17, 0x01	; 1
  76:	a0 e0       	ldi	r26, 0x00	; 0
  78:	b1 e0       	ldi	r27, 0x01	; 1
  7a:	ee e3       	ldi	r30, 0x3E	; 62
  7c:	f7 e0       	ldi	r31, 0x07	; 7
  7e:	02 c0       	rjmp	.+4      	; 0x84 <__do_copy_data+0x10>
  80:	05 90       	lpm	r0, Z+
  82:	0d 92       	st	X+, r0
  84:	a4 31       	cpi	r26, 0x14	; 20
  86:	b1 07       	cpc	r27, r17
  88:	d9 f7       	brne	.-10     	; 0x80 <__do_copy_data+0xc>

0000008a <__do_clear_bss>:
  8a:	21 e0       	ldi	r18, 0x01	; 1
  8c:	a4 e1       	ldi	r26, 0x14	; 20
  8e:	b1 e0       	ldi	r27, 0x01	; 1
  90:	01 c0       	rjmp	.+2      	; 0x94 <.do_clear_bss_start>

00000092 <.do_clear_bss_loop>:
  92:	1d 92       	st	X+, r1

00000094 <.do_clear_bss_start>:
  94:	a6 31       	cpi	r26, 0x16	; 22
  96:	b2 07       	cpc	r27, r18
  98:	e1 f7       	brne	.-8      	; 0x92 <.do_clear_bss_loop>
  9a:	0e 94 dc 00 	call	0x1b8	; 0x1b8 <main>
  9e:	0c 94 9d 03 	jmp	0x73a	; 0x73a <_exit>

000000a2 <__bad_interrupt>:
  a2:	0c 94 00 00 	jmp	0	; 0x0 <__vectors>

000000a6 <ds18b20_reset>:
 */
uint8_t ds18b20_reset() {
	uint8_t i;

	//low for 480us
	DS18B20_LOW(); //low
  a6:	40 98       	cbi	0x08, 0	; 8
	DS18B20_OUTPUT_MODE(); //output
  a8:	38 9a       	sbi	0x07, 0	; 7
	#else
		//round up by default
		__ticks_dc = (uint32_t)(ceil(fabs(__tmp)));
	#endif

	__builtin_avr_delay_cycles(__ticks_dc);
  aa:	8f e7       	ldi	r24, 0x7F	; 127
  ac:	97 e0       	ldi	r25, 0x07	; 7
  ae:	01 97       	sbiw	r24, 0x01	; 1
  b0:	f1 f7       	brne	.-4      	; 0xae <ds18b20_reset+0x8>
  b2:	00 c0       	rjmp	.+0      	; 0xb4 <ds18b20_reset+0xe>
  b4:	00 00       	nop
	_delay_us(480);

	//release line and wait for 60uS
	DS18B20_INPUT_MODE(); //input
  b6:	38 98       	cbi	0x07, 0	; 7
  b8:	ef ee       	ldi	r30, 0xEF	; 239
  ba:	f0 e0       	ldi	r31, 0x00	; 0
  bc:	31 97       	sbiw	r30, 0x01	; 1
  be:	f1 f7       	brne	.-4      	; 0xbc <ds18b20_reset+0x16>
  c0:	00 c0       	rjmp	.+0      	; 0xc2 <ds18b20_reset+0x1c>
  c2:	00 00       	nop
	_delay_us(60);

	//get value and wait 420us
	i = (DS18B20_READ_VALUE());
  c4:	86 b1       	in	r24, 0x06	; 6
  c6:	ef e8       	ldi	r30, 0x8F	; 143
  c8:	f6 e0       	ldi	r31, 0x06	; 6
  ca:	31 97       	sbiw	r30, 0x01	; 1
  cc:	f1 f7       	brne	.-4      	; 0xca <ds18b20_reset+0x24>
  ce:	00 c0       	rjmp	.+0      	; 0xd0 <ds18b20_reset+0x2a>
  d0:	00 00       	nop
	_delay_us(420);

	//return the read value, 0=ok, 1=error
	return i;
}
  d2:	81 70       	andi	r24, 0x01	; 1
  d4:	08 95       	ret

000000d6 <ds18b20_writebit>:
/*
 * write one bit
 */
void ds18b20_writebit(uint8_t bit){
	//low for 1uS
	DS18B20_LOW(); //low
  d6:	40 98       	cbi	0x08, 0	; 8
	DS18B20_OUTPUT_MODE(); //output
  d8:	38 9a       	sbi	0x07, 0	; 7
  da:	95 e0       	ldi	r25, 0x05	; 5
  dc:	9a 95       	dec	r25
  de:	f1 f7       	brne	.-4      	; 0xdc <ds18b20_writebit+0x6>
  e0:	00 00       	nop
	_delay_us(1);

	//if we want to write 1, release the line (if not will keep low)
	if(bit)
  e2:	81 11       	cpse	r24, r1
		DS18B20_INPUT_MODE(); //input
  e4:	38 98       	cbi	0x07, 0	; 7
  e6:	8f ee       	ldi	r24, 0xEF	; 239
  e8:	90 e0       	ldi	r25, 0x00	; 0
  ea:	01 97       	sbiw	r24, 0x01	; 1
  ec:	f1 f7       	brne	.-4      	; 0xea <ds18b20_writebit+0x14>
  ee:	00 c0       	rjmp	.+0      	; 0xf0 <ds18b20_writebit+0x1a>
  f0:	00 00       	nop

	//wait 60uS and release the line
	_delay_us(60);
	DS18B20_INPUT_MODE(); //input
  f2:	38 98       	cbi	0x07, 0	; 7
  f4:	08 95       	ret

000000f6 <ds18b20_readbit>:
 */
uint8_t ds18b20_readbit(void){
	uint8_t bit=0;

	//low for 1uS
	DS18B20_LOW(); //low
  f6:	40 98       	cbi	0x08, 0	; 8
	DS18B20_OUTPUT_MODE(); //output
  f8:	38 9a       	sbi	0x07, 0	; 7
  fa:	85 e0       	ldi	r24, 0x05	; 5
  fc:	8a 95       	dec	r24
  fe:	f1 f7       	brne	.-4      	; 0xfc <ds18b20_readbit+0x6>
 100:	00 00       	nop
	_delay_us(1);

	//release line and wait for 14uS
	DS18B20_INPUT_MODE(); //input
 102:	38 98       	cbi	0x07, 0	; 7
 104:	9a e4       	ldi	r25, 0x4A	; 74
 106:	9a 95       	dec	r25
 108:	f1 f7       	brne	.-4      	; 0x106 <ds18b20_readbit+0x10>
 10a:	00 c0       	rjmp	.+0      	; 0x10c <ds18b20_readbit+0x16>
	_delay_us(14);

	//read the value
	if(DS18B20_READ_VALUE())
 10c:	86 b1       	in	r24, 0x06	; 6
 10e:	90 ef       	ldi	r25, 0xF0	; 240
 110:	9a 95       	dec	r25
 112:	f1 f7       	brne	.-4      	; 0x110 <ds18b20_readbit+0x1a>
		bit=1;

	//wait 45uS and return read value
	_delay_us(45);
	return bit;
}
 114:	81 70       	andi	r24, 0x01	; 1
 116:	08 95       	ret

00000118 <ds18b20_writebyte>:

/*
 * write one byte
 */
void ds18b20_writebyte(uint8_t byte){
 118:	cf 93       	push	r28
 11a:	df 93       	push	r29
 11c:	d8 2f       	mov	r29, r24
 11e:	c8 e0       	ldi	r28, 0x08	; 8
	uint8_t i=8;
	while(i--){
		ds18b20_writebit(byte&1);
 120:	8d 2f       	mov	r24, r29
 122:	81 70       	andi	r24, 0x01	; 1
 124:	0e 94 6b 00 	call	0xd6	; 0xd6 <ds18b20_writebit>
		byte >>= 1;
 128:	d6 95       	lsr	r29
 12a:	c1 50       	subi	r28, 0x01	; 1
/*
 * write one byte
 */
void ds18b20_writebyte(uint8_t byte){
	uint8_t i=8;
	while(i--){
 12c:	c9 f7       	brne	.-14     	; 0x120 <ds18b20_writebyte+0x8>
		ds18b20_writebit(byte&1);
		byte >>= 1;
	}
}
 12e:	df 91       	pop	r29
 130:	cf 91       	pop	r28
 132:	08 95       	ret

00000134 <ds18b20_readbyte>:

/*
 * read one byte
 */
uint8_t ds18b20_readbyte(void){
 134:	cf 93       	push	r28
 136:	df 93       	push	r29
 138:	d8 e0       	ldi	r29, 0x08	; 8
	uint8_t i=8, n=0;
 13a:	c0 e0       	ldi	r28, 0x00	; 0
	while(i--){
		n >>= 1;
		n |= (ds18b20_readbit()<<7);
 13c:	0e 94 7b 00 	call	0xf6	; 0xf6 <ds18b20_readbit>
 140:	20 e8       	ldi	r18, 0x80	; 128
 142:	82 9f       	mul	r24, r18
 144:	c0 01       	movw	r24, r0
 146:	11 24       	eor	r1, r1
 148:	c6 95       	lsr	r28
 14a:	c8 2b       	or	r28, r24
 14c:	d1 50       	subi	r29, 0x01	; 1
/*
 * read one byte
 */
uint8_t ds18b20_readbyte(void){
	uint8_t i=8, n=0;
	while(i--){
 14e:	b1 f7       	brne	.-20     	; 0x13c <ds18b20_readbyte+0x8>
		n >>= 1;
		n |= (ds18b20_readbit()<<7);
	}
	return n;
}
 150:	8c 2f       	mov	r24, r28
 152:	df 91       	pop	r29
 154:	cf 91       	pop	r28
 156:	08 95       	ret

00000158 <ds18b20_gettemp>:

/*
 * get temperature
 */
double ds18b20_gettemp() {
 158:	cf 93       	push	r28
	uint8_t temperature_l;
	uint8_t temperature_h;
	double retd = 0;

	#if DS18B20_STOPINTERRUPTONREAD == 1
	cli();
 15a:	f8 94       	cli
	#endif

	ds18b20_reset(); //reset
 15c:	0e 94 53 00 	call	0xa6	; 0xa6 <ds18b20_reset>
	ds18b20_writebyte(DS18B20_CMD_SKIPROM); //skip ROM
 160:	8c ec       	ldi	r24, 0xCC	; 204
 162:	0e 94 8c 00 	call	0x118	; 0x118 <ds18b20_writebyte>
	ds18b20_writebyte(DS18B20_CMD_CONVERTTEMP); //start temperature conversion
 166:	84 e4       	ldi	r24, 0x44	; 68
 168:	0e 94 8c 00 	call	0x118	; 0x118 <ds18b20_writebyte>

	while(!ds18b20_readbit()); //wait until conversion is complete
 16c:	0e 94 7b 00 	call	0xf6	; 0xf6 <ds18b20_readbit>
 170:	88 23       	and	r24, r24
 172:	e1 f3       	breq	.-8      	; 0x16c <ds18b20_gettemp+0x14>

	ds18b20_reset(); //reset
 174:	0e 94 53 00 	call	0xa6	; 0xa6 <ds18b20_reset>
	ds18b20_writebyte(DS18B20_CMD_SKIPROM); //skip ROM
 178:	8c ec       	ldi	r24, 0xCC	; 204
 17a:	0e 94 8c 00 	call	0x118	; 0x118 <ds18b20_writebyte>
	ds18b20_writebyte(DS18B20_CMD_RSCRATCHPAD); //read scratchpad
 17e:	8e eb       	ldi	r24, 0xBE	; 190
 180:	0e 94 8c 00 	call	0x118	; 0x118 <ds18b20_writebyte>

	//read 2 byte from scratchpad
	temperature_l = ds18b20_readbyte();
 184:	0e 94 9a 00 	call	0x134	; 0x134 <ds18b20_readbyte>
 188:	c8 2f       	mov	r28, r24
	temperature_h = ds18b20_readbyte();
 18a:	0e 94 9a 00 	call	0x134	; 0x134 <ds18b20_readbyte>

	#if DS18B20_STOPINTERRUPTONREAD == 1
	sei();
 18e:	78 94       	sei
	#endif

	//convert the 12 bit value obtained
	retd = ( ( temperature_h << 8 ) + temperature_l ) * 0.0625;

	return retd;
 190:	68 2f       	mov	r22, r24
 192:	70 e0       	ldi	r23, 0x00	; 0
 194:	76 2f       	mov	r23, r22
 196:	66 27       	eor	r22, r22
 198:	6c 0f       	add	r22, r28
 19a:	71 1d       	adc	r23, r1
 19c:	07 2e       	mov	r0, r23
 19e:	00 0c       	add	r0, r0
 1a0:	88 0b       	sbc	r24, r24
 1a2:	99 0b       	sbc	r25, r25
 1a4:	0e 94 6c 02 	call	0x4d8	; 0x4d8 <__floatsisf>
 1a8:	20 e0       	ldi	r18, 0x00	; 0
 1aa:	30 e0       	ldi	r19, 0x00	; 0
 1ac:	40 e8       	ldi	r20, 0x80	; 128
 1ae:	5d e3       	ldi	r21, 0x3D	; 61
 1b0:	0e 94 f9 02 	call	0x5f2	; 0x5f2 <__mulsf3>
}
 1b4:	cf 91       	pop	r28
 1b6:	08 95       	ret

000001b8 <main>:
#include "ds18b20.h"
unsigned char tempChar[2];

int main(void)
{
	DDRD = 0xFF;		//PORTD como saída para pastilha
 1b8:	8f ef       	ldi	r24, 0xFF	; 255
 1ba:	8a b9       	out	0x0a, r24	; 10
	DDRB = 0xFF;		//PORTB como saída para display
 1bc:	84 b9       	out	0x04, r24	; 4
    PORTC = 0xFE;     
 1be:	8e ef       	ldi	r24, 0xFE	; 254
 1c0:	88 b9       	out	0x08, r24	; 8
    DDRC= 0x00;
 1c2:	17 b8       	out	0x07, r1	; 7
	double tempC;
    
	sei();
 1c4:	78 94       	sei
         
	inic_LCD_4bits(); //inicializa o display
 1c6:	0e 94 89 01 	call	0x312	; 0x312 <inic_LCD_4bits>
	
    while(1)
    {
		tempC = ds18b20_gettemp();
 1ca:	0e 94 ac 00 	call	0x158	; 0x158 <ds18b20_gettemp>
 1ce:	6b 01       	movw	r12, r22
 1d0:	7c 01       	movw	r14, r24
		
		cmd_LCD(0x81,0); // posição do cursor
 1d2:	60 e0       	ldi	r22, 0x00	; 0
 1d4:	81 e8       	ldi	r24, 0x81	; 129
 1d6:	0e 94 50 01 	call	0x2a0	; 0x2a0 <cmd_LCD>
		escreve_LCD("TESTE DE SONDAS:");//Escreve
 1da:	80 e0       	ldi	r24, 0x00	; 0
 1dc:	91 e0       	ldi	r25, 0x01	; 1
 1de:	0e 94 f1 01 	call	0x3e2	; 0x3e2 <escreve_LCD>
	   
        cmd_LCD(0xC9,0);
 1e2:	60 e0       	ldi	r22, 0x00	; 0
 1e4:	89 ec       	ldi	r24, 0xC9	; 201
 1e6:	0e 94 50 01 	call	0x2a0	; 0x2a0 <cmd_LCD>
        escreve_LCD("C");
 1ea:	81 e1       	ldi	r24, 0x11	; 17
 1ec:	91 e0       	ldi	r25, 0x01	; 1
 1ee:	0e 94 f1 01 	call	0x3e2	; 0x3e2 <escreve_LCD>
		  
		if (tempC>40||tempC<8) {
 1f2:	20 e0       	ldi	r18, 0x00	; 0
 1f4:	30 e0       	ldi	r19, 0x00	; 0
 1f6:	40 e2       	ldi	r20, 0x20	; 32
 1f8:	52 e4       	ldi	r21, 0x42	; 66
 1fa:	c7 01       	movw	r24, r14
 1fc:	b6 01       	movw	r22, r12
 1fe:	0e 94 f4 02 	call	0x5e8	; 0x5e8 <__gesf2>
 202:	18 16       	cp	r1, r24
 204:	54 f0       	brlt	.+20     	; 0x21a <main+0x62>
 206:	20 e0       	ldi	r18, 0x00	; 0
 208:	30 e0       	ldi	r19, 0x00	; 0
 20a:	40 e0       	ldi	r20, 0x00	; 0
 20c:	51 e4       	ldi	r21, 0x41	; 65
 20e:	c7 01       	movw	r24, r14
 210:	b6 01       	movw	r22, r12
 212:	0e 94 36 02 	call	0x46c	; 0x46c <__cmpsf2>
 216:	88 23       	and	r24, r24
 218:	ac f4       	brge	.+42     	; 0x244 <main+0x8c>
			cmd_LCD(0xC5,0);
 21a:	60 e0       	ldi	r22, 0x00	; 0
 21c:	85 ec       	ldi	r24, 0xC5	; 197
 21e:	0e 94 50 01 	call	0x2a0	; 0x2a0 <cmd_LCD>
			cmd_LCD('X',1);
 222:	61 e0       	ldi	r22, 0x01	; 1
 224:	88 e5       	ldi	r24, 0x58	; 88
 226:	0e 94 50 01 	call	0x2a0	; 0x2a0 <cmd_LCD>
			cmd_LCD(0xC6,0);
 22a:	60 e0       	ldi	r22, 0x00	; 0
 22c:	86 ec       	ldi	r24, 0xC6	; 198
 22e:	0e 94 50 01 	call	0x2a0	; 0x2a0 <cmd_LCD>
			cmd_LCD('X',1);
 232:	61 e0       	ldi	r22, 0x01	; 1
 234:	88 e5       	ldi	r24, 0x58	; 88
 236:	0e 94 50 01 	call	0x2a0	; 0x2a0 <cmd_LCD>
			cmd_LCD(0x00,1);
 23a:	61 e0       	ldi	r22, 0x01	; 1
 23c:	80 e0       	ldi	r24, 0x00	; 0
 23e:	0e 94 50 01 	call	0x2a0	; 0x2a0 <cmd_LCD>
 242:	24 c0       	rjmp	.+72     	; 0x28c <main+0xd4>
		}
				
	    else {
			ident_num(tempC,tempChar);
 244:	c7 01       	movw	r24, r14
 246:	b6 01       	movw	r22, r12
 248:	0e 94 3b 02 	call	0x476	; 0x476 <__fixunssfsi>
 24c:	dc 01       	movw	r26, r24
 24e:	cb 01       	movw	r24, r22
 250:	64 e1       	ldi	r22, 0x14	; 20
 252:	71 e0       	ldi	r23, 0x01	; 1
 254:	0e 94 01 02 	call	0x402	; 0x402 <ident_num>
			cmd_LCD(0x00,1);
 258:	61 e0       	ldi	r22, 0x01	; 1
 25a:	80 e0       	ldi	r24, 0x00	; 0
 25c:	0e 94 50 01 	call	0x2a0	; 0x2a0 <cmd_LCD>
			cmd_LCD(0xC5,0);
 260:	60 e0       	ldi	r22, 0x00	; 0
 262:	85 ec       	ldi	r24, 0xC5	; 197
 264:	0e 94 50 01 	call	0x2a0	; 0x2a0 <cmd_LCD>
			cmd_LCD(tempChar[1],1);
 268:	c4 e1       	ldi	r28, 0x14	; 20
 26a:	d1 e0       	ldi	r29, 0x01	; 1
 26c:	61 e0       	ldi	r22, 0x01	; 1
 26e:	89 81       	ldd	r24, Y+1	; 0x01
 270:	0e 94 50 01 	call	0x2a0	; 0x2a0 <cmd_LCD>
			cmd_LCD(tempChar[0],1);
 274:	61 e0       	ldi	r22, 0x01	; 1
 276:	88 81       	ld	r24, Y
 278:	0e 94 50 01 	call	0x2a0	; 0x2a0 <cmd_LCD>
			cmd_LCD(0xc8,0);
 27c:	60 e0       	ldi	r22, 0x00	; 0
 27e:	88 ec       	ldi	r24, 0xC8	; 200
 280:	0e 94 50 01 	call	0x2a0	; 0x2a0 <cmd_LCD>
			cmd_LCD(0b11011111,1);
 284:	61 e0       	ldi	r22, 0x01	; 1
 286:	8f ed       	ldi	r24, 0xDF	; 223
 288:	0e 94 50 01 	call	0x2a0	; 0x2a0 <cmd_LCD>
	#else
		//round up by default
		__ticks_dc = (uint32_t)(ceil(fabs(__tmp)));
	#endif

	__builtin_avr_delay_cycles(__ticks_dc);
 28c:	2f ef       	ldi	r18, 0xFF	; 255
 28e:	81 ee       	ldi	r24, 0xE1	; 225
 290:	94 e0       	ldi	r25, 0x04	; 4
 292:	21 50       	subi	r18, 0x01	; 1
 294:	80 40       	sbci	r24, 0x00	; 0
 296:	90 40       	sbci	r25, 0x00	; 0
 298:	e1 f7       	brne	.-8      	; 0x292 <main+0xda>
 29a:	00 c0       	rjmp	.+0      	; 0x29c <main+0xe4>
 29c:	00 00       	nop
 29e:	95 cf       	rjmp	.-214    	; 0x1ca <main+0x12>

000002a0 <cmd_LCD>:
//Sub-rotina de escrita no LCD - dados armazenados na FLASH
//---------------------------------------------------------------------------------------------
void escreve_LCD_Flash(const char *c)
{
   for (;pgm_read_byte(&(*c))!=0;c++) cmd_LCD(pgm_read_byte(&(*c)),1);
}
 2a0:	61 11       	cpse	r22, r1
 2a2:	02 c0       	rjmp	.+4      	; 0x2a8 <cmd_LCD+0x8>
 2a4:	28 98       	cbi	0x05, 0	; 5
 2a6:	01 c0       	rjmp	.+2      	; 0x2aa <cmd_LCD+0xa>
 2a8:	28 9a       	sbi	0x05, 0	; 5
 2aa:	9b b1       	in	r25, 0x0b	; 11
 2ac:	9f 70       	andi	r25, 0x0F	; 15
 2ae:	28 2f       	mov	r18, r24
 2b0:	20 7f       	andi	r18, 0xF0	; 240
 2b2:	92 2b       	or	r25, r18
 2b4:	9b b9       	out	0x0b, r25	; 11
 2b6:	45 e0       	ldi	r20, 0x05	; 5
 2b8:	4a 95       	dec	r20
 2ba:	f1 f7       	brne	.-4      	; 0x2b8 <cmd_LCD+0x18>
 2bc:	00 00       	nop
 2be:	29 9a       	sbi	0x05, 1	; 5
 2c0:	95 e0       	ldi	r25, 0x05	; 5
 2c2:	9a 95       	dec	r25
 2c4:	f1 f7       	brne	.-4      	; 0x2c2 <cmd_LCD+0x22>
 2c6:	00 00       	nop
 2c8:	29 98       	cbi	0x05, 1	; 5
 2ca:	40 ef       	ldi	r20, 0xF0	; 240
 2cc:	4a 95       	dec	r20
 2ce:	f1 f7       	brne	.-4      	; 0x2cc <cmd_LCD+0x2c>
 2d0:	2b b1       	in	r18, 0x0b	; 11
 2d2:	92 2f       	mov	r25, r18
 2d4:	9f 70       	andi	r25, 0x0F	; 15
 2d6:	40 e1       	ldi	r20, 0x10	; 16
 2d8:	84 9f       	mul	r24, r20
 2da:	90 01       	movw	r18, r0
 2dc:	11 24       	eor	r1, r1
 2de:	29 2b       	or	r18, r25
 2e0:	2b b9       	out	0x0b, r18	; 11
 2e2:	95 e0       	ldi	r25, 0x05	; 5
 2e4:	9a 95       	dec	r25
 2e6:	f1 f7       	brne	.-4      	; 0x2e4 <cmd_LCD+0x44>
 2e8:	00 00       	nop
 2ea:	29 9a       	sbi	0x05, 1	; 5
 2ec:	45 e0       	ldi	r20, 0x05	; 5
 2ee:	4a 95       	dec	r20
 2f0:	f1 f7       	brne	.-4      	; 0x2ee <cmd_LCD+0x4e>
 2f2:	00 00       	nop
 2f4:	29 98       	cbi	0x05, 1	; 5
 2f6:	90 ef       	ldi	r25, 0xF0	; 240
 2f8:	9a 95       	dec	r25
 2fa:	f1 f7       	brne	.-4      	; 0x2f8 <cmd_LCD+0x58>
 2fc:	61 11       	cpse	r22, r1
 2fe:	08 c0       	rjmp	.+16     	; 0x310 <cmd_LCD+0x70>
 300:	84 30       	cpi	r24, 0x04	; 4
 302:	30 f4       	brcc	.+12     	; 0x310 <cmd_LCD+0x70>
 304:	8f e3       	ldi	r24, 0x3F	; 63
 306:	9f e1       	ldi	r25, 0x1F	; 31
 308:	01 97       	sbiw	r24, 0x01	; 1
 30a:	f1 f7       	brne	.-4      	; 0x308 <cmd_LCD+0x68>
 30c:	00 c0       	rjmp	.+0      	; 0x30e <cmd_LCD+0x6e>
 30e:	00 00       	nop
 310:	08 95       	ret

00000312 <inic_LCD_4bits>:
 312:	28 98       	cbi	0x05, 0	; 5
 314:	29 98       	cbi	0x05, 1	; 5
 316:	2f ef       	ldi	r18, 0xFF	; 255
 318:	89 ef       	ldi	r24, 0xF9	; 249
 31a:	90 e0       	ldi	r25, 0x00	; 0
 31c:	21 50       	subi	r18, 0x01	; 1
 31e:	80 40       	sbci	r24, 0x00	; 0
 320:	90 40       	sbci	r25, 0x00	; 0
 322:	e1 f7       	brne	.-8      	; 0x31c <inic_LCD_4bits+0xa>
 324:	00 c0       	rjmp	.+0      	; 0x326 <inic_LCD_4bits+0x14>
 326:	00 00       	nop
 328:	8b b1       	in	r24, 0x0b	; 11
 32a:	8f 70       	andi	r24, 0x0F	; 15
 32c:	80 63       	ori	r24, 0x30	; 48
 32e:	8b b9       	out	0x0b, r24	; 11
 330:	25 e0       	ldi	r18, 0x05	; 5
 332:	2a 95       	dec	r18
 334:	f1 f7       	brne	.-4      	; 0x332 <inic_LCD_4bits+0x20>
 336:	00 00       	nop
 338:	29 9a       	sbi	0x05, 1	; 5
 33a:	85 e0       	ldi	r24, 0x05	; 5
 33c:	8a 95       	dec	r24
 33e:	f1 f7       	brne	.-4      	; 0x33c <inic_LCD_4bits+0x2a>
 340:	00 00       	nop
 342:	29 98       	cbi	0x05, 1	; 5
 344:	90 ef       	ldi	r25, 0xF0	; 240
 346:	9a 95       	dec	r25
 348:	f1 f7       	brne	.-4      	; 0x346 <inic_LCD_4bits+0x34>
 34a:	8f e1       	ldi	r24, 0x1F	; 31
 34c:	9e e4       	ldi	r25, 0x4E	; 78
 34e:	01 97       	sbiw	r24, 0x01	; 1
 350:	f1 f7       	brne	.-4      	; 0x34e <inic_LCD_4bits+0x3c>
 352:	00 c0       	rjmp	.+0      	; 0x354 <inic_LCD_4bits+0x42>
 354:	00 00       	nop
 356:	95 e0       	ldi	r25, 0x05	; 5
 358:	9a 95       	dec	r25
 35a:	f1 f7       	brne	.-4      	; 0x358 <inic_LCD_4bits+0x46>
 35c:	00 00       	nop
 35e:	29 9a       	sbi	0x05, 1	; 5
 360:	25 e0       	ldi	r18, 0x05	; 5
 362:	2a 95       	dec	r18
 364:	f1 f7       	brne	.-4      	; 0x362 <inic_LCD_4bits+0x50>
 366:	00 00       	nop
 368:	29 98       	cbi	0x05, 1	; 5
 36a:	80 ef       	ldi	r24, 0xF0	; 240
 36c:	8a 95       	dec	r24
 36e:	f1 f7       	brne	.-4      	; 0x36c <inic_LCD_4bits+0x5a>
 370:	8f e1       	ldi	r24, 0x1F	; 31
 372:	93 e0       	ldi	r25, 0x03	; 3
 374:	01 97       	sbiw	r24, 0x01	; 1
 376:	f1 f7       	brne	.-4      	; 0x374 <inic_LCD_4bits+0x62>
 378:	00 c0       	rjmp	.+0      	; 0x37a <inic_LCD_4bits+0x68>
 37a:	00 00       	nop
 37c:	95 e0       	ldi	r25, 0x05	; 5
 37e:	9a 95       	dec	r25
 380:	f1 f7       	brne	.-4      	; 0x37e <inic_LCD_4bits+0x6c>
 382:	00 00       	nop
 384:	29 9a       	sbi	0x05, 1	; 5
 386:	25 e0       	ldi	r18, 0x05	; 5
 388:	2a 95       	dec	r18
 38a:	f1 f7       	brne	.-4      	; 0x388 <inic_LCD_4bits+0x76>
 38c:	00 00       	nop
 38e:	29 98       	cbi	0x05, 1	; 5
 390:	80 ef       	ldi	r24, 0xF0	; 240
 392:	8a 95       	dec	r24
 394:	f1 f7       	brne	.-4      	; 0x392 <inic_LCD_4bits+0x80>
 396:	8b b1       	in	r24, 0x0b	; 11
 398:	8f 70       	andi	r24, 0x0F	; 15
 39a:	80 62       	ori	r24, 0x20	; 32
 39c:	8b b9       	out	0x0b, r24	; 11
 39e:	95 e0       	ldi	r25, 0x05	; 5
 3a0:	9a 95       	dec	r25
 3a2:	f1 f7       	brne	.-4      	; 0x3a0 <inic_LCD_4bits+0x8e>
 3a4:	00 00       	nop
 3a6:	29 9a       	sbi	0x05, 1	; 5
 3a8:	25 e0       	ldi	r18, 0x05	; 5
 3aa:	2a 95       	dec	r18
 3ac:	f1 f7       	brne	.-4      	; 0x3aa <inic_LCD_4bits+0x98>
 3ae:	00 00       	nop
 3b0:	29 98       	cbi	0x05, 1	; 5
 3b2:	80 ef       	ldi	r24, 0xF0	; 240
 3b4:	8a 95       	dec	r24
 3b6:	f1 f7       	brne	.-4      	; 0x3b4 <inic_LCD_4bits+0xa2>
 3b8:	60 e0       	ldi	r22, 0x00	; 0
 3ba:	88 e2       	ldi	r24, 0x28	; 40
 3bc:	0e 94 50 01 	call	0x2a0	; 0x2a0 <cmd_LCD>
 3c0:	60 e0       	ldi	r22, 0x00	; 0
 3c2:	88 e0       	ldi	r24, 0x08	; 8
 3c4:	0e 94 50 01 	call	0x2a0	; 0x2a0 <cmd_LCD>
 3c8:	60 e0       	ldi	r22, 0x00	; 0
 3ca:	81 e0       	ldi	r24, 0x01	; 1
 3cc:	0e 94 50 01 	call	0x2a0	; 0x2a0 <cmd_LCD>
 3d0:	60 e0       	ldi	r22, 0x00	; 0
 3d2:	8c e0       	ldi	r24, 0x0C	; 12
 3d4:	0e 94 50 01 	call	0x2a0	; 0x2a0 <cmd_LCD>
 3d8:	60 e0       	ldi	r22, 0x00	; 0
 3da:	80 e8       	ldi	r24, 0x80	; 128
 3dc:	0e 94 50 01 	call	0x2a0	; 0x2a0 <cmd_LCD>
 3e0:	08 95       	ret

000003e2 <escreve_LCD>:
 3e2:	cf 93       	push	r28
 3e4:	df 93       	push	r29
 3e6:	ec 01       	movw	r28, r24
 3e8:	88 81       	ld	r24, Y
 3ea:	88 23       	and	r24, r24
 3ec:	39 f0       	breq	.+14     	; 0x3fc <escreve_LCD+0x1a>
 3ee:	21 96       	adiw	r28, 0x01	; 1
 3f0:	61 e0       	ldi	r22, 0x01	; 1
 3f2:	0e 94 50 01 	call	0x2a0	; 0x2a0 <cmd_LCD>
 3f6:	89 91       	ld	r24, Y+
 3f8:	81 11       	cpse	r24, r1
 3fa:	fa cf       	rjmp	.-12     	; 0x3f0 <escreve_LCD+0xe>
 3fc:	df 91       	pop	r29
 3fe:	cf 91       	pop	r28
 400:	08 95       	ret

00000402 <ident_num>:
//---------------------------------------------------------------------------------------------
//Conversão de um número em seus digitos individuais
//---------------------------------------------------------------------------------------------
void ident_num(unsigned int valor, unsigned char *disp)
{   
 402:	ac 01       	movw	r20, r24
 404:	fb 01       	movw	r30, r22
 406:	db 01       	movw	r26, r22
 408:	9b 01       	movw	r18, r22
 40a:	2b 5f       	subi	r18, 0xFB	; 251
 40c:	3f 4f       	sbci	r19, 0xFF	; 255
 	unsigned char n;

	for(n=0; n<tam_vetor; n++)
		disp[n] = 0 + conv_ascii;		//limpa vetor para armazenagem do digitos 
 40e:	80 e3       	ldi	r24, 0x30	; 48
 410:	8d 93       	st	X+, r24
//---------------------------------------------------------------------------------------------
void ident_num(unsigned int valor, unsigned char *disp)
{   
 	unsigned char n;

	for(n=0; n<tam_vetor; n++)
 412:	a2 17       	cp	r26, r18
 414:	b3 07       	cpc	r27, r19
 416:	e1 f7       	brne	.-8      	; 0x410 <ident_num+0xe>
		disp[n] = 0 + conv_ascii;		//limpa vetor para armazenagem do digitos 

	do
	{
       *disp = (valor%10) + conv_ascii;	//pega o resto da divisao por 10 
 418:	9a 01       	movw	r18, r20
 41a:	ad ec       	ldi	r26, 0xCD	; 205
 41c:	bc ec       	ldi	r27, 0xCC	; 204
 41e:	0e 94 8e 03 	call	0x71c	; 0x71c <__umulhisi3>
 422:	96 95       	lsr	r25
 424:	87 95       	ror	r24
 426:	96 95       	lsr	r25
 428:	87 95       	ror	r24
 42a:	96 95       	lsr	r25
 42c:	87 95       	ror	r24
 42e:	9c 01       	movw	r18, r24
 430:	22 0f       	add	r18, r18
 432:	33 1f       	adc	r19, r19
 434:	88 0f       	add	r24, r24
 436:	99 1f       	adc	r25, r25
 438:	88 0f       	add	r24, r24
 43a:	99 1f       	adc	r25, r25
 43c:	88 0f       	add	r24, r24
 43e:	99 1f       	adc	r25, r25
 440:	82 0f       	add	r24, r18
 442:	93 1f       	adc	r25, r19
 444:	9a 01       	movw	r18, r20
 446:	28 1b       	sub	r18, r24
 448:	39 0b       	sbc	r19, r25
 44a:	c9 01       	movw	r24, r18
 44c:	80 5d       	subi	r24, 0xD0	; 208
 44e:	81 93       	st	Z+, r24
	   valor /=10;						//pega o inteiro da divisão por 10
 450:	9a 01       	movw	r18, r20
 452:	0e 94 8e 03 	call	0x71c	; 0x71c <__umulhisi3>
 456:	ac 01       	movw	r20, r24
 458:	56 95       	lsr	r21
 45a:	47 95       	ror	r20
 45c:	56 95       	lsr	r21
 45e:	47 95       	ror	r20
 460:	56 95       	lsr	r21
 462:	47 95       	ror	r20
	   disp++;

	}while (valor!=0);
 464:	41 15       	cp	r20, r1
 466:	51 05       	cpc	r21, r1
 468:	b9 f6       	brne	.-82     	; 0x418 <ident_num+0x16>
}
 46a:	08 95       	ret

0000046c <__cmpsf2>:
 46c:	0e 94 a7 02 	call	0x54e	; 0x54e <__fp_cmp>
 470:	08 f4       	brcc	.+2      	; 0x474 <__cmpsf2+0x8>
 472:	81 e0       	ldi	r24, 0x01	; 1
 474:	08 95       	ret

00000476 <__fixunssfsi>:
 476:	0e 94 d3 02 	call	0x5a6	; 0x5a6 <__fp_splitA>
 47a:	88 f0       	brcs	.+34     	; 0x49e <__fixunssfsi+0x28>
 47c:	9f 57       	subi	r25, 0x7F	; 127
 47e:	98 f0       	brcs	.+38     	; 0x4a6 <__fixunssfsi+0x30>
 480:	b9 2f       	mov	r27, r25
 482:	99 27       	eor	r25, r25
 484:	b7 51       	subi	r27, 0x17	; 23
 486:	b0 f0       	brcs	.+44     	; 0x4b4 <__fixunssfsi+0x3e>
 488:	e1 f0       	breq	.+56     	; 0x4c2 <__fixunssfsi+0x4c>
 48a:	66 0f       	add	r22, r22
 48c:	77 1f       	adc	r23, r23
 48e:	88 1f       	adc	r24, r24
 490:	99 1f       	adc	r25, r25
 492:	1a f0       	brmi	.+6      	; 0x49a <__fixunssfsi+0x24>
 494:	ba 95       	dec	r27
 496:	c9 f7       	brne	.-14     	; 0x48a <__fixunssfsi+0x14>
 498:	14 c0       	rjmp	.+40     	; 0x4c2 <__fixunssfsi+0x4c>
 49a:	b1 30       	cpi	r27, 0x01	; 1
 49c:	91 f0       	breq	.+36     	; 0x4c2 <__fixunssfsi+0x4c>
 49e:	0e 94 ed 02 	call	0x5da	; 0x5da <__fp_zero>
 4a2:	b1 e0       	ldi	r27, 0x01	; 1
 4a4:	08 95       	ret
 4a6:	0c 94 ed 02 	jmp	0x5da	; 0x5da <__fp_zero>
 4aa:	67 2f       	mov	r22, r23
 4ac:	78 2f       	mov	r23, r24
 4ae:	88 27       	eor	r24, r24
 4b0:	b8 5f       	subi	r27, 0xF8	; 248
 4b2:	39 f0       	breq	.+14     	; 0x4c2 <__fixunssfsi+0x4c>
 4b4:	b9 3f       	cpi	r27, 0xF9	; 249
 4b6:	cc f3       	brlt	.-14     	; 0x4aa <__fixunssfsi+0x34>
 4b8:	86 95       	lsr	r24
 4ba:	77 95       	ror	r23
 4bc:	67 95       	ror	r22
 4be:	b3 95       	inc	r27
 4c0:	d9 f7       	brne	.-10     	; 0x4b8 <__fixunssfsi+0x42>
 4c2:	3e f4       	brtc	.+14     	; 0x4d2 <__fixunssfsi+0x5c>
 4c4:	90 95       	com	r25
 4c6:	80 95       	com	r24
 4c8:	70 95       	com	r23
 4ca:	61 95       	neg	r22
 4cc:	7f 4f       	sbci	r23, 0xFF	; 255
 4ce:	8f 4f       	sbci	r24, 0xFF	; 255
 4d0:	9f 4f       	sbci	r25, 0xFF	; 255
 4d2:	08 95       	ret

000004d4 <__floatunsisf>:
 4d4:	e8 94       	clt
 4d6:	09 c0       	rjmp	.+18     	; 0x4ea <__floatsisf+0x12>

000004d8 <__floatsisf>:
 4d8:	97 fb       	bst	r25, 7
 4da:	3e f4       	brtc	.+14     	; 0x4ea <__floatsisf+0x12>
 4dc:	90 95       	com	r25
 4de:	80 95       	com	r24
 4e0:	70 95       	com	r23
 4e2:	61 95       	neg	r22
 4e4:	7f 4f       	sbci	r23, 0xFF	; 255
 4e6:	8f 4f       	sbci	r24, 0xFF	; 255
 4e8:	9f 4f       	sbci	r25, 0xFF	; 255
 4ea:	99 23       	and	r25, r25
 4ec:	a9 f0       	breq	.+42     	; 0x518 <__floatsisf+0x40>
 4ee:	f9 2f       	mov	r31, r25
 4f0:	96 e9       	ldi	r25, 0x96	; 150
 4f2:	bb 27       	eor	r27, r27
 4f4:	93 95       	inc	r25
 4f6:	f6 95       	lsr	r31
 4f8:	87 95       	ror	r24
 4fa:	77 95       	ror	r23
 4fc:	67 95       	ror	r22
 4fe:	b7 95       	ror	r27
 500:	f1 11       	cpse	r31, r1
 502:	f8 cf       	rjmp	.-16     	; 0x4f4 <__floatsisf+0x1c>
 504:	fa f4       	brpl	.+62     	; 0x544 <__floatsisf+0x6c>
 506:	bb 0f       	add	r27, r27
 508:	11 f4       	brne	.+4      	; 0x50e <__floatsisf+0x36>
 50a:	60 ff       	sbrs	r22, 0
 50c:	1b c0       	rjmp	.+54     	; 0x544 <__floatsisf+0x6c>
 50e:	6f 5f       	subi	r22, 0xFF	; 255
 510:	7f 4f       	sbci	r23, 0xFF	; 255
 512:	8f 4f       	sbci	r24, 0xFF	; 255
 514:	9f 4f       	sbci	r25, 0xFF	; 255
 516:	16 c0       	rjmp	.+44     	; 0x544 <__floatsisf+0x6c>
 518:	88 23       	and	r24, r24
 51a:	11 f0       	breq	.+4      	; 0x520 <__floatsisf+0x48>
 51c:	96 e9       	ldi	r25, 0x96	; 150
 51e:	11 c0       	rjmp	.+34     	; 0x542 <__floatsisf+0x6a>
 520:	77 23       	and	r23, r23
 522:	21 f0       	breq	.+8      	; 0x52c <__floatsisf+0x54>
 524:	9e e8       	ldi	r25, 0x8E	; 142
 526:	87 2f       	mov	r24, r23
 528:	76 2f       	mov	r23, r22
 52a:	05 c0       	rjmp	.+10     	; 0x536 <__floatsisf+0x5e>
 52c:	66 23       	and	r22, r22
 52e:	71 f0       	breq	.+28     	; 0x54c <__floatsisf+0x74>
 530:	96 e8       	ldi	r25, 0x86	; 134
 532:	86 2f       	mov	r24, r22
 534:	70 e0       	ldi	r23, 0x00	; 0
 536:	60 e0       	ldi	r22, 0x00	; 0
 538:	2a f0       	brmi	.+10     	; 0x544 <__floatsisf+0x6c>
 53a:	9a 95       	dec	r25
 53c:	66 0f       	add	r22, r22
 53e:	77 1f       	adc	r23, r23
 540:	88 1f       	adc	r24, r24
 542:	da f7       	brpl	.-10     	; 0x53a <__floatsisf+0x62>
 544:	88 0f       	add	r24, r24
 546:	96 95       	lsr	r25
 548:	87 95       	ror	r24
 54a:	97 f9       	bld	r25, 7
 54c:	08 95       	ret

0000054e <__fp_cmp>:
 54e:	99 0f       	add	r25, r25
 550:	00 08       	sbc	r0, r0
 552:	55 0f       	add	r21, r21
 554:	aa 0b       	sbc	r26, r26
 556:	e0 e8       	ldi	r30, 0x80	; 128
 558:	fe ef       	ldi	r31, 0xFE	; 254
 55a:	16 16       	cp	r1, r22
 55c:	17 06       	cpc	r1, r23
 55e:	e8 07       	cpc	r30, r24
 560:	f9 07       	cpc	r31, r25
 562:	c0 f0       	brcs	.+48     	; 0x594 <__fp_cmp+0x46>
 564:	12 16       	cp	r1, r18
 566:	13 06       	cpc	r1, r19
 568:	e4 07       	cpc	r30, r20
 56a:	f5 07       	cpc	r31, r21
 56c:	98 f0       	brcs	.+38     	; 0x594 <__fp_cmp+0x46>
 56e:	62 1b       	sub	r22, r18
 570:	73 0b       	sbc	r23, r19
 572:	84 0b       	sbc	r24, r20
 574:	95 0b       	sbc	r25, r21
 576:	39 f4       	brne	.+14     	; 0x586 <__fp_cmp+0x38>
 578:	0a 26       	eor	r0, r26
 57a:	61 f0       	breq	.+24     	; 0x594 <__fp_cmp+0x46>
 57c:	23 2b       	or	r18, r19
 57e:	24 2b       	or	r18, r20
 580:	25 2b       	or	r18, r21
 582:	21 f4       	brne	.+8      	; 0x58c <__fp_cmp+0x3e>
 584:	08 95       	ret
 586:	0a 26       	eor	r0, r26
 588:	09 f4       	brne	.+2      	; 0x58c <__fp_cmp+0x3e>
 58a:	a1 40       	sbci	r26, 0x01	; 1
 58c:	a6 95       	lsr	r26
 58e:	8f ef       	ldi	r24, 0xFF	; 255
 590:	81 1d       	adc	r24, r1
 592:	81 1d       	adc	r24, r1
 594:	08 95       	ret

00000596 <__fp_split3>:
 596:	57 fd       	sbrc	r21, 7
 598:	90 58       	subi	r25, 0x80	; 128
 59a:	44 0f       	add	r20, r20
 59c:	55 1f       	adc	r21, r21
 59e:	59 f0       	breq	.+22     	; 0x5b6 <__fp_splitA+0x10>
 5a0:	5f 3f       	cpi	r21, 0xFF	; 255
 5a2:	71 f0       	breq	.+28     	; 0x5c0 <__fp_splitA+0x1a>
 5a4:	47 95       	ror	r20

000005a6 <__fp_splitA>:
 5a6:	88 0f       	add	r24, r24
 5a8:	97 fb       	bst	r25, 7
 5aa:	99 1f       	adc	r25, r25
 5ac:	61 f0       	breq	.+24     	; 0x5c6 <__fp_splitA+0x20>
 5ae:	9f 3f       	cpi	r25, 0xFF	; 255
 5b0:	79 f0       	breq	.+30     	; 0x5d0 <__fp_splitA+0x2a>
 5b2:	87 95       	ror	r24
 5b4:	08 95       	ret
 5b6:	12 16       	cp	r1, r18
 5b8:	13 06       	cpc	r1, r19
 5ba:	14 06       	cpc	r1, r20
 5bc:	55 1f       	adc	r21, r21
 5be:	f2 cf       	rjmp	.-28     	; 0x5a4 <__fp_split3+0xe>
 5c0:	46 95       	lsr	r20
 5c2:	f1 df       	rcall	.-30     	; 0x5a6 <__fp_splitA>
 5c4:	08 c0       	rjmp	.+16     	; 0x5d6 <__fp_splitA+0x30>
 5c6:	16 16       	cp	r1, r22
 5c8:	17 06       	cpc	r1, r23
 5ca:	18 06       	cpc	r1, r24
 5cc:	99 1f       	adc	r25, r25
 5ce:	f1 cf       	rjmp	.-30     	; 0x5b2 <__fp_splitA+0xc>
 5d0:	86 95       	lsr	r24
 5d2:	71 05       	cpc	r23, r1
 5d4:	61 05       	cpc	r22, r1
 5d6:	08 94       	sec
 5d8:	08 95       	ret

000005da <__fp_zero>:
 5da:	e8 94       	clt

000005dc <__fp_szero>:
 5dc:	bb 27       	eor	r27, r27
 5de:	66 27       	eor	r22, r22
 5e0:	77 27       	eor	r23, r23
 5e2:	cb 01       	movw	r24, r22
 5e4:	97 f9       	bld	r25, 7
 5e6:	08 95       	ret

000005e8 <__gesf2>:
 5e8:	0e 94 a7 02 	call	0x54e	; 0x54e <__fp_cmp>
 5ec:	08 f4       	brcc	.+2      	; 0x5f0 <__gesf2+0x8>
 5ee:	8f ef       	ldi	r24, 0xFF	; 255
 5f0:	08 95       	ret

000005f2 <__mulsf3>:
 5f2:	0e 94 0c 03 	call	0x618	; 0x618 <__mulsf3x>
 5f6:	0c 94 7d 03 	jmp	0x6fa	; 0x6fa <__fp_round>
 5fa:	0e 94 6f 03 	call	0x6de	; 0x6de <__fp_pscA>
 5fe:	38 f0       	brcs	.+14     	; 0x60e <__mulsf3+0x1c>
 600:	0e 94 76 03 	call	0x6ec	; 0x6ec <__fp_pscB>
 604:	20 f0       	brcs	.+8      	; 0x60e <__mulsf3+0x1c>
 606:	95 23       	and	r25, r21
 608:	11 f0       	breq	.+4      	; 0x60e <__mulsf3+0x1c>
 60a:	0c 94 66 03 	jmp	0x6cc	; 0x6cc <__fp_inf>
 60e:	0c 94 6c 03 	jmp	0x6d8	; 0x6d8 <__fp_nan>
 612:	11 24       	eor	r1, r1
 614:	0c 94 ee 02 	jmp	0x5dc	; 0x5dc <__fp_szero>

00000618 <__mulsf3x>:
 618:	0e 94 cb 02 	call	0x596	; 0x596 <__fp_split3>
 61c:	70 f3       	brcs	.-36     	; 0x5fa <__mulsf3+0x8>

0000061e <__mulsf3_pse>:
 61e:	95 9f       	mul	r25, r21
 620:	c1 f3       	breq	.-16     	; 0x612 <__mulsf3+0x20>
 622:	95 0f       	add	r25, r21
 624:	50 e0       	ldi	r21, 0x00	; 0
 626:	55 1f       	adc	r21, r21
 628:	62 9f       	mul	r22, r18
 62a:	f0 01       	movw	r30, r0
 62c:	72 9f       	mul	r23, r18
 62e:	bb 27       	eor	r27, r27
 630:	f0 0d       	add	r31, r0
 632:	b1 1d       	adc	r27, r1
 634:	63 9f       	mul	r22, r19
 636:	aa 27       	eor	r26, r26
 638:	f0 0d       	add	r31, r0
 63a:	b1 1d       	adc	r27, r1
 63c:	aa 1f       	adc	r26, r26
 63e:	64 9f       	mul	r22, r20
 640:	66 27       	eor	r22, r22
 642:	b0 0d       	add	r27, r0
 644:	a1 1d       	adc	r26, r1
 646:	66 1f       	adc	r22, r22
 648:	82 9f       	mul	r24, r18
 64a:	22 27       	eor	r18, r18
 64c:	b0 0d       	add	r27, r0
 64e:	a1 1d       	adc	r26, r1
 650:	62 1f       	adc	r22, r18
 652:	73 9f       	mul	r23, r19
 654:	b0 0d       	add	r27, r0
 656:	a1 1d       	adc	r26, r1
 658:	62 1f       	adc	r22, r18
 65a:	83 9f       	mul	r24, r19
 65c:	a0 0d       	add	r26, r0
 65e:	61 1d       	adc	r22, r1
 660:	22 1f       	adc	r18, r18
 662:	74 9f       	mul	r23, r20
 664:	33 27       	eor	r19, r19
 666:	a0 0d       	add	r26, r0
 668:	61 1d       	adc	r22, r1
 66a:	23 1f       	adc	r18, r19
 66c:	84 9f       	mul	r24, r20
 66e:	60 0d       	add	r22, r0
 670:	21 1d       	adc	r18, r1
 672:	82 2f       	mov	r24, r18
 674:	76 2f       	mov	r23, r22
 676:	6a 2f       	mov	r22, r26
 678:	11 24       	eor	r1, r1
 67a:	9f 57       	subi	r25, 0x7F	; 127
 67c:	50 40       	sbci	r21, 0x00	; 0
 67e:	9a f0       	brmi	.+38     	; 0x6a6 <__mulsf3_pse+0x88>
 680:	f1 f0       	breq	.+60     	; 0x6be <__mulsf3_pse+0xa0>
 682:	88 23       	and	r24, r24
 684:	4a f0       	brmi	.+18     	; 0x698 <__mulsf3_pse+0x7a>
 686:	ee 0f       	add	r30, r30
 688:	ff 1f       	adc	r31, r31
 68a:	bb 1f       	adc	r27, r27
 68c:	66 1f       	adc	r22, r22
 68e:	77 1f       	adc	r23, r23
 690:	88 1f       	adc	r24, r24
 692:	91 50       	subi	r25, 0x01	; 1
 694:	50 40       	sbci	r21, 0x00	; 0
 696:	a9 f7       	brne	.-22     	; 0x682 <__mulsf3_pse+0x64>
 698:	9e 3f       	cpi	r25, 0xFE	; 254
 69a:	51 05       	cpc	r21, r1
 69c:	80 f0       	brcs	.+32     	; 0x6be <__mulsf3_pse+0xa0>
 69e:	0c 94 66 03 	jmp	0x6cc	; 0x6cc <__fp_inf>
 6a2:	0c 94 ee 02 	jmp	0x5dc	; 0x5dc <__fp_szero>
 6a6:	5f 3f       	cpi	r21, 0xFF	; 255
 6a8:	e4 f3       	brlt	.-8      	; 0x6a2 <__mulsf3_pse+0x84>
 6aa:	98 3e       	cpi	r25, 0xE8	; 232
 6ac:	d4 f3       	brlt	.-12     	; 0x6a2 <__mulsf3_pse+0x84>
 6ae:	86 95       	lsr	r24
 6b0:	77 95       	ror	r23
 6b2:	67 95       	ror	r22
 6b4:	b7 95       	ror	r27
 6b6:	f7 95       	ror	r31
 6b8:	e7 95       	ror	r30
 6ba:	9f 5f       	subi	r25, 0xFF	; 255
 6bc:	c1 f7       	brne	.-16     	; 0x6ae <__mulsf3_pse+0x90>
 6be:	fe 2b       	or	r31, r30
 6c0:	88 0f       	add	r24, r24
 6c2:	91 1d       	adc	r25, r1
 6c4:	96 95       	lsr	r25
 6c6:	87 95       	ror	r24
 6c8:	97 f9       	bld	r25, 7
 6ca:	08 95       	ret

000006cc <__fp_inf>:
 6cc:	97 f9       	bld	r25, 7
 6ce:	9f 67       	ori	r25, 0x7F	; 127
 6d0:	80 e8       	ldi	r24, 0x80	; 128
 6d2:	70 e0       	ldi	r23, 0x00	; 0
 6d4:	60 e0       	ldi	r22, 0x00	; 0
 6d6:	08 95       	ret

000006d8 <__fp_nan>:
 6d8:	9f ef       	ldi	r25, 0xFF	; 255
 6da:	80 ec       	ldi	r24, 0xC0	; 192
 6dc:	08 95       	ret

000006de <__fp_pscA>:
 6de:	00 24       	eor	r0, r0
 6e0:	0a 94       	dec	r0
 6e2:	16 16       	cp	r1, r22
 6e4:	17 06       	cpc	r1, r23
 6e6:	18 06       	cpc	r1, r24
 6e8:	09 06       	cpc	r0, r25
 6ea:	08 95       	ret

000006ec <__fp_pscB>:
 6ec:	00 24       	eor	r0, r0
 6ee:	0a 94       	dec	r0
 6f0:	12 16       	cp	r1, r18
 6f2:	13 06       	cpc	r1, r19
 6f4:	14 06       	cpc	r1, r20
 6f6:	05 06       	cpc	r0, r21
 6f8:	08 95       	ret

000006fa <__fp_round>:
 6fa:	09 2e       	mov	r0, r25
 6fc:	03 94       	inc	r0
 6fe:	00 0c       	add	r0, r0
 700:	11 f4       	brne	.+4      	; 0x706 <__fp_round+0xc>
 702:	88 23       	and	r24, r24
 704:	52 f0       	brmi	.+20     	; 0x71a <__fp_round+0x20>
 706:	bb 0f       	add	r27, r27
 708:	40 f4       	brcc	.+16     	; 0x71a <__fp_round+0x20>
 70a:	bf 2b       	or	r27, r31
 70c:	11 f4       	brne	.+4      	; 0x712 <__fp_round+0x18>
 70e:	60 ff       	sbrs	r22, 0
 710:	04 c0       	rjmp	.+8      	; 0x71a <__fp_round+0x20>
 712:	6f 5f       	subi	r22, 0xFF	; 255
 714:	7f 4f       	sbci	r23, 0xFF	; 255
 716:	8f 4f       	sbci	r24, 0xFF	; 255
 718:	9f 4f       	sbci	r25, 0xFF	; 255
 71a:	08 95       	ret

0000071c <__umulhisi3>:
 71c:	a2 9f       	mul	r26, r18
 71e:	b0 01       	movw	r22, r0
 720:	b3 9f       	mul	r27, r19
 722:	c0 01       	movw	r24, r0
 724:	a3 9f       	mul	r26, r19
 726:	70 0d       	add	r23, r0
 728:	81 1d       	adc	r24, r1
 72a:	11 24       	eor	r1, r1
 72c:	91 1d       	adc	r25, r1
 72e:	b2 9f       	mul	r27, r18
 730:	70 0d       	add	r23, r0
 732:	81 1d       	adc	r24, r1
 734:	11 24       	eor	r1, r1
 736:	91 1d       	adc	r25, r1
 738:	08 95       	ret

0000073a <_exit>:
 73a:	f8 94       	cli

0000073c <__stop_program>:
 73c:	ff cf       	rjmp	.-2      	; 0x73c <__stop_program>
